; Function Attrs: mustprogress uwtable
define void @_ZNK6icu_7717RuleBasedTimeZone13completeConstER10UErrorCode(ptr noundef nonnull align 8 captures(none) dereferenceable(105) %0, ptr noundef nonnull align 4 dereferenceable(4) %1) local_unnamed_addr #1 align 2 {
  %3 = load i32, ptr %1, align 4, !tbaa !21
  %4 = icmp slt i32 %3, 1
  br i1 %4, label %5, label %10

5:                                                ; preds = %2
  tail call void @umtx_lock_77(ptr noundef nonnull @_ZZNK6icu_7717RuleBasedTimeZone13completeConstER10UErrorCodeE5gLock)
  %6 = getelementptr inbounds nuw i8, ptr %0, i64 104
  %7 = load i8, ptr %6, align 8, !tbaa !18
  %.not4 = icmp eq i8 %7, 0
  br i1 %.not4, label %8, label %9

8:                                                ; preds = %5
  tail call void @_ZN6icu_7717RuleBasedTimeZone8completeER10UErrorCode(ptr noundef nonnull align 8 dereferenceable(105) %0, ptr noundef nonnull align 4 dereferenceable(4) %1)
  br label %9

9:                                                ; preds = %8, %5
  tail call void @umtx_unlock_77(ptr noundef nonnull @_ZZNK6icu_7717RuleBasedTimeZone13completeConstER10UErrorCodeE5gLock)
  br label %10

10:                                               ; preds = %2, %9
  ret void
}